ccopy_reg
_reconstructor
p0
(csympybotics.robotmodel
RobotDynCode
p1
c__builtin__
object
p2
Ntp3
Rp4
(dp5
S'c_code'
p6
((lp7
g0
(csympy.matrices.dense
MutableDenseMatrix
p8
g2
Ntp9
Rp10
(dp11
S'rows'
p12
I1
sS'_mat'
p13
(lp14
csympy.core.numbers
Zero
p15
(tRp16
(dp17
basS'cols'
p18
I1
sbtp19
sS'f_code'
p20
((lp21
g0
(g8
g2
Ntp22
Rp23
(dp24
g12
I1
sg13
(lp25
csympy.core.add
Add
p26
(csympy.core.mul
Mul
p27
(csympy.core.symbol
Symbol
p28
(S'fc_1'
p29
tp30
Rp31
(dp32
S'_assumptions'
p33
g0
(csympy.core.assumptions
StdFactKB
p34
c__builtin__
dict
p35
(dp36
S'real'
p37
I01
sS'imaginary'
p38
I00
sS'complex'
p39
I01
sS'hermitian'
p40
I01
sS'commutative'
p41
I01
stp42
Rp43
sbcsympy.functions.elementary.complexes
sign
p44
(g28
(S'\\dot{q}_1'
p45
tp46
Rp47
(dp48
g33
g0
(g34
g35
(dp49
g37
I01
sg41
I01
sS'positive'
p50
NsS'negative'
p51
NsS'zero'
p52
Nsg39
I01
sg40
I01
sg38
I00
stp53
Rp54
sbtp55
Rp56
(dp57
btp58
Rp59
(dp60
bg28
(S'fo_1'
p61
tp62
Rp63
(dp64
g33
g0
(g34
g35
(dp65
g37
I01
sg38
I00
sg39
I01
sg40
I01
sg41
I01
stp66
Rp67
sbg27
(g47
g28
(S'fv_1'
p68
tp69
Rp70
(dp71
g33
g0
(g34
g35
(dp72
g37
I01
sg38
I00
sg39
I01
sg40
I01
sg41
I01
stp73
Rp74
sbtp75
Rp76
(dp77
btp78
Rp79
(dp80
basg18
I1
sbtp81
sS'g_code'
p82
((lp83
g0
(g8
g2
Ntp84
Rp85
(dp86
g12
I1
sg13
(lp87
g26
(g27
(csympy.core.numbers
Float
p88
((I1
S'139eb851eb851fL'
p89
I-49
I53
tp90
tp91
Rp92
(dp93
S'_prec'
p94
I53
sbg28
(S'l_1x'
p95
tp96
Rp97
(dp98
g33
g0
(g34
g35
(dp99
g37
I01
sg38
I00
sg39
I01
sg40
I01
sg41
I01
stp100
Rp101
sbcsympy.functions.elementary.trigonometric
cos
p102
(g28
(S'q1'
p103
tp104
Rp105
(dp106
g33
g0
(g34
g35
(dp107
g37
I01
sg38
I00
sg39
I01
sg40
I01
sg41
I01
stp108
Rp109
sbtp110
Rp111
(dp112
btp113
Rp114
(dp115
bg27
(g88
((I0
S'139eb851eb851fL'
p116
I-49
I53
tp117
tp118
Rp119
(dp120
g94
I53
sbg28
(S'l_1y'
p121
tp122
Rp123
(dp124
g33
g0
(g34
g35
(dp125
g37
I01
sg38
I00
sg39
I01
sg40
I01
sg41
I01
stp126
Rp127
sbcsympy.functions.elementary.trigonometric
sin
p128
(g105
tp129
Rp130
(dp131
btp132
Rp133
(dp134
btp135
Rp136
(dp137
basg18
I1
sbtp138
sS'C_code'
p139
((lp140
g0
(g8
g2
Ntp141
Rp142
(dp143
g12
I1
sg13
(lp144
g16
asg18
I1
sbtp145
sS'H_code'
p146
((lp147
g0
(g8
g2
Ntp148
Rp149
(dp150
g12
I1
sg13
(lp151
g16
ag16
ag16
ag16
ag16
ag28
(S'\\ddot{q}_1'
p152
tp153
Rp154
(dp155
g33
g0
(g34
g35
(dp156
g37
I01
sg38
I00
sg39
I01
sg40
I01
sg41
I01
stp157
Rp158
sbag27
(g88
((I1
S'139eb851eb851fL'
p159
I-49
I53
tp160
tp161
Rp162
(dp163
g94
I53
sbg111
tp164
Rp165
(dp166
bag27
(g88
((I0
S'139eb851eb851fL'
p167
I-49
I53
tp168
tp169
Rp170
(dp171
g94
I53
sbg130
tp172
Rp173
(dp174
bag16
ag16
ag154
ag47
ag56
acsympy.core.numbers
One
p175
(tRp176
(dp177
basg18
I14
sbtp178
sS'dof'
p179
I1
sS'invdyn_code'
p180
((lp181
g0
(g8
g2
Ntp182
Rp183
(dp184
g12
I1
sg13
(lp185
g26
(g59
g27
(g92
g97
g111
tp186
Rp187
(dp188
bg27
(g28
(S'Ia_1'
p189
tp190
Rp191
(dp192
g33
g0
(g34
g35
(dp193
g37
I01
sg38
I00
sg39
I01
sg40
I01
sg41
I01
stp194
Rp195
sbg154
tp196
Rp197
(dp198
bg63
g27
(g119
g123
g130
tp199
Rp200
(dp201
bg27
(g28
(S'L_1zz'
p202
tp203
Rp204
(dp205
g33
g0
(g34
g35
(dp206
g37
I01
sg38
I00
sg39
I01
sg40
I01
sg41
I01
stp207
Rp208
sbg154
tp209
Rp210
(dp211
bg76
tp212
Rp213
(dp214
basg18
I1
sbtp215
sS'dyn'
p216
g0
(csympybotics.dynamics.dynamics
Dynamics
p217
g2
Ntp218
Rp219
(dp220
S'n_dynparms'
p221
I14
sS'dynparms'
p222
g0
(g8
g2
Ntp223
Rp224
(dp225
g12
I14
sg13
(lp226
g28
(S'L_1xx'
p227
tp228
Rp229
(dp230
g33
g0
(g34
g35
(dp231
g37
I01
sg38
I00
sg39
I01
sg40
I01
sg41
I01
stp232
Rp233
sbag28
(S'L_1xy'
p234
tp235
Rp236
(dp237
g33
g0
(g34
g35
(dp238
g37
I01
sg38
I00
sg39
I01
sg40
I01
sg41
I01
stp239
Rp240
sbag28
(S'L_1xz'
p241
tp242
Rp243
(dp244
g33
g0
(g34
g35
(dp245
g37
I01
sg38
I00
sg39
I01
sg40
I01
sg41
I01
stp246
Rp247
sbag28
(S'L_1yy'
p248
tp249
Rp250
(dp251
g33
g0
(g34
g35
(dp252
g37
I01
sg38
I00
sg39
I01
sg40
I01
sg41
I01
stp253
Rp254
sbag28
(S'L_1yz'
p255
tp256
Rp257
(dp258
g33
g0
(g34
g35
(dp259
g37
I01
sg38
I00
sg39
I01
sg40
I01
sg41
I01
stp260
Rp261
sbag204
ag97
ag123
ag28
(S'l_1z'
p262
tp263
Rp264
(dp265
g33
g0
(g34
g35
(dp266
g37
I01
sg38
I00
sg39
I01
sg40
I01
sg41
I01
stp267
Rp268
sbag28
(S'm_1'
p269
tp270
Rp271
(dp272
g33
g0
(g34
g35
(dp273
g37
I01
sg38
I00
sg39
I01
sg40
I01
sg41
I01
stp274
Rp275
sbag191
ag70
ag31
ag63
asg18
I1
sbsS'invdyn'
p276
g0
(g8
g2
Ntp277
Rp278
(dp279
g12
I1
sg13
(lp280
g28
(S'tmp31'
p281
tp282
Rp283
(dp284
g33
g0
(g34
g35
(dp285
g37
I01
sg38
I00
sg39
I01
sg40
I01
sg41
I01
stp286
Rp287
sbasg18
I1
sbsS'baseparms'
p288
g0
(g8
g2
Ntp289
Rp290
(dp291
g12
I6
sg13
(lp292
g26
(g28
(g189
tp293
Rp294
(dp295
g33
g0
(g34
g35
(dp296
g37
I01
sg38
I00
sg39
I01
sg40
I01
sg41
I01
stp297
Rp298
sbg28
(g202
tp299
Rp300
(dp301
g33
g0
(g34
g35
(dp302
g37
I01
sg38
I00
sg39
I01
sg40
I01
sg41
I01
stp303
Rp304
sbtp305
Rp306
(dp307
bag28
(g95
tp308
Rp309
(dp310
g33
g0
(g34
g35
(dp311
g37
I01
sg38
I00
sg39
I01
sg40
I01
sg41
I01
stp312
Rp313
sbag123
ag70
ag31
ag63
asg18
I1
sbsS'g'
p314
g0
(g8
g2
Ntp315
Rp316
(dp317
g12
I1
sg13
(lp318
g28
(S'tmp10'
p319
tp320
Rp321
(dp322
g33
g0
(g34
g35
(dp323
g37
I01
sg38
I00
sg39
I01
sg40
I01
sg41
I01
stp324
Rp325
sbasg18
I1
sbsS'f'
p326
g0
(g8
g2
Ntp327
Rp328
(dp329
g12
I1
sg13
(lp330
g28
(S'tmp3'
p331
tp332
Rp333
(dp334
g33
g0
(g34
g35
(dp335
g37
I01
sg38
I00
sg39
I01
sg40
I01
sg41
I01
stp336
Rp337
sbasg18
I1
sbsS'C'
p338
g0
(g8
g2
Ntp339
Rp340
(dp341
g12
I1
sg13
(lp342
g16
asg18
I1
sbsS'M'
p343
g0
(g8
g2
Ntp344
Rp345
(dp346
g12
I1
sg13
(lp347
g28
(S'tmp1'
p348
tp349
Rp350
(dp351
g33
g0
(g34
g35
(dp352
g37
I01
sg38
I00
sg39
I01
sg40
I01
sg41
I01
stp353
Rp354
sbasg18
I1
sbsS'Kd'
p355
g0
(g8
g2
Ntp356
Rp357
(dp358
g12
I6
sg13
(lp359
g16
ag16
ag16
ag16
ag16
ag16
ag16
ag176
ag16
ag16
ag16
ag16
ag16
ag16
ag16
ag16
ag16
ag16
ag16
ag16
ag16
ag16
ag16
ag16
ag16
ag16
ag16
ag16
ag16
ag16
ag16
ag16
ag16
ag16
ag16
ag16
ag16
ag16
ag16
ag16
ag16
ag16
ag16
ag16
ag16
ag16
ag16
ag16
asg18
I8
sbsg179
I1
sS'c'
p360
g0
(g8
g2
Ntp361
Rp362
(dp363
g12
I1
sg13
(lp364
g16
asg18
I1
sbsS'Pb'
p365
g0
(g8
g2
Ntp366
Rp367
(dp368
g12
I14
sg13
(lp369
g16
ag16
ag16
ag16
ag16
ag16
ag16
ag16
ag16
ag16
ag16
ag16
ag16
ag16
ag16
ag16
ag16
ag16
ag16
ag16
ag16
ag16
ag16
ag16
ag16
ag16
ag16
ag16
ag16
ag16
ag176
ag16
ag16
ag16
ag16
ag16
ag16
ag176
ag16
ag16
ag16
ag16
ag16
ag16
ag176
ag16
ag16
ag16
ag16
ag16
ag16
ag16
ag16
ag16
ag16
ag16
ag16
ag16
ag16
ag16
ag16
ag16
ag16
ag16
ag16
ag16
ag16
ag16
ag16
ag176
ag16
ag16
ag16
ag16
ag16
ag16
ag176
ag16
ag16
ag16
ag16
ag16
ag16
ag176
asg18
I6
sbsS'rbtdef'
p370
g0
(csympybotics.robotdef
RobotDef
p371
g2
Ntp372
Rp373
(dp374
S'_dh_parms'
p375
(lp376
(g16
g16
g16
g105
tp377
asS'Le'
p378
(lp379
(lp380
g229
ag236
ag243
ag250
ag257
ag204
aasS'dict_r2lm'
p381
(dp382
g28
(S'r_1z'
p383
tp384
Rp385
(dp386
g33
g0
(g34
g35
(dp387
g37
I01
sg38
I00
sg39
I01
sg40
I01
sg41
I01
stp388
Rp389
sbg27
(g264
csympy.core.power
Pow
p390
(g271
csympy.core.numbers
NegativeOne
p391
(tRp392
(dp393
btp394
Rp395
(dp396
btp397
Rp398
(dp399
bsg28
(S'r_1x'
p400
tp401
Rp402
(dp403
g33
g0
(g34
g35
(dp404
g37
I01
sg38
I00
sg39
I01
sg40
I01
sg41
I01
stp405
Rp406
sbg27
(g97
g395
tp407
Rp408
(dp409
bsg28
(S'r_1y'
p410
tp411
Rp412
(dp413
g33
g0
(g34
g35
(dp414
g37
I01
sg38
I00
sg39
I01
sg40
I01
sg41
I01
stp415
Rp416
sbg27
(g123
g395
tp417
Rp418
(dp419
bssg179
I1
sS'gravityacc'
p420
g0
(g8
g2
Ntp421
Rp422
(dp423
g12
I3
sg13
(lp424
g88
((I0
S'0L'
p425
I0
I0
tp426
tp427
Rp428
(dp429
g94
I53
sbag88
((I0
S'139eb851eb851fL'
p430
I-49
I53
tp431
tp432
Rp433
(dp434
g94
I53
sbag88
((I0
S'0L'
p435
I0
I0
tp436
tp437
Rp438
(dp439
g94
I53
sbasg18
I1
sbsS'_links_sigma'
p440
(lp441
I0
asS'driveinertiamodel'
p442
S'simplified'
p443
sS'ddq'
p444
g0
(g8
g2
Ntp445
Rp446
(dp447
g12
I1
sg13
(lp448
g154
asg18
I1
sbsS'_dh_convention'
p449
S'modified'
p450
sS'shortname'
p451
S'mx64'
p452
sS'fo'
p453
(lp454
g63
asS'L_funcof_I'
p455
(lp456
g0
(g8
g2
Ntp457
Rp458
(dp459
g12
I3
sg13
(lp460
g26
(g27
(g271
g390
(g412
csympy.core.numbers
Integer
p461
(I2
tp462
Rp463
(dp464
btp465
Rp466
(dp467
btp468
Rp469
(dp470
bg28
(S'I_1xx'
p471
tp472
Rp473
(dp474
g33
g0
(g34
g35
(dp475
g37
I01
sg38
I00
sg39
I01
sg40
I01
sg41
I01
stp476
Rp477
sbg27
(g271
g390
(g385
g463
tp478
Rp479
(dp480
btp481
Rp482
(dp483
btp484
Rp485
(dp486
bag26
(g27
(g392
g271
g402
g412
tp487
Rp488
(dp489
bg28
(S'I_1xy'
p490
tp491
Rp492
(dp493
g33
g0
(g34
g35
(dp494
g37
I01
sg38
I00
sg39
I01
sg40
I01
sg41
I01
stp495
Rp496
sbtp497
Rp498
(dp499
bag26
(g28
(S'I_1xz'
p500
tp501
Rp502
(dp503
g33
g0
(g34
g35
(dp504
g37
I01
sg38
I00
sg39
I01
sg40
I01
sg41
I01
stp505
Rp506
sbg27
(g392
g271
g402
g385
tp507
Rp508
(dp509
btp510
Rp511
(dp512
bag498
ag26
(g27
(g271
g479
tp513
Rp514
(dp515
bg27
(g271
g390
(g402
g463
tp516
Rp517
(dp518
btp519
Rp520
(dp521
bg28
(S'I_1yy'
p522
tp523
Rp524
(dp525
g33
g0
(g34
g35
(dp526
g37
I01
sg38
I00
sg39
I01
sg40
I01
sg41
I01
stp527
Rp528
sbtp529
Rp530
(dp531
bag26
(g28
(S'I_1yz'
p532
tp533
Rp534
(dp535
g33
g0
(g34
g35
(dp536
g37
I01
sg38
I00
sg39
I01
sg40
I01
sg41
I01
stp537
Rp538
sbg27
(g392
g271
g412
g385
tp539
Rp540
(dp541
btp542
Rp543
(dp544
bag511
ag543
ag26
(g27
(g271
g466
tp545
Rp546
(dp547
bg27
(g271
g517
tp548
Rp549
(dp550
bg28
(S'I_1zz'
p551
tp552
Rp553
(dp554
g33
g0
(g34
g35
(dp555
g37
I01
sg38
I00
sg39
I01
sg40
I01
sg41
I01
stp556
Rp557
sbtp558
Rp559
(dp560
basg18
I3
sbasS'dict_l2mr'
p561
(dp562
g97
g27
(g271
g402
tp563
Rp564
(dp565
bsg123
g27
(g271
g412
tp566
Rp567
(dp568
bsg264
g27
(g271
g385
tp569
Rp570
(dp571
bssS'fv'
p572
(lp573
g70
asS'_dyn_parms_order'
p574
S'Khalil'
p575
sS'fc'
p576
(lp577
g31
asS'dict_L2Iexp'
p578
(dp579
g229
g485
sg204
g559
sg257
g543
sg236
g498
sg243
g511
sg250
g530
ssS'frictionmodel'
p580
c__builtin__
set
p581
((lp582
S'viscous'
p583
aS'Coulomb'
p584
aS'offset'
p585
atp586
Rp587
sS'non_latex_symbols'
p588
(dp589
g105
S'q1'
p590
sg154
S'ddq1'
p591
sg47
S'dq1'
p592
ssS'dict_I2Lexp'
p593
(dp594
g534
g26
(g257
g27
(g271
g412
g385
tp595
Rp596
(dp597
btp598
Rp599
(dp600
bsg524
g26
(g27
(g392
g271
g517
tp601
Rp602
(dp603
bg250
g27
(g392
g271
g479
tp604
Rp605
(dp606
btp607
Rp608
(dp609
bsg553
g26
(g27
(g392
g271
g517
tp610
Rp611
(dp612
bg27
(g392
g271
g466
tp613
Rp614
(dp615
bg204
tp616
Rp617
(dp618
bsg492
g26
(g236
g27
(g271
g402
g412
tp619
Rp620
(dp621
btp622
Rp623
(dp624
bsg502
g26
(g243
g27
(g271
g402
g385
tp625
Rp626
(dp627
btp628
Rp629
(dp630
bsg473
g26
(g27
(g392
g271
g466
tp631
Rp632
(dp633
bg27
(g392
g271
g479
tp634
Rp635
(dp636
bg229
tp637
Rp638
(dp639
bssS'_dh_symbols'
p640
(g28
(S'alpha'
p641
tp642
Rp643
(dp644
g33
g0
(g34
g35
(dp645
g37
I01
sg38
I00
sg39
I01
sg40
I01
sg41
I01
stp646
Rp647
sbg28
(S'a'
p648
tp649
Rp650
(dp651
g33
g0
(g34
g35
(dp652
g37
I01
sg38
I00
sg39
I01
sg40
I01
sg41
I01
stp653
Rp654
sbg28
(S'd'
p655
tp656
Rp657
(dp658
g33
g0
(g34
g35
(dp659
g37
I01
sg38
I00
sg39
I01
sg40
I01
sg41
I01
stp660
Rp661
sbg28
(S'theta'
p662
tp663
Rp664
(dp665
g33
g0
(g34
g35
(dp666
g37
I01
sg38
I00
sg39
I01
sg40
I01
sg41
I01
stp667
Rp668
sbtp669
sS'dq'
p670
g0
(g8
g2
Ntp671
Rp672
(dp673
g12
I1
sg13
(lp674
g47
asg18
I1
sbsS'name'
p675
S'mx64'
p676
sS'_dh_transfmat'
p677
g0
(g8
g2
Ntp678
Rp679
(dp680
g12
I4
sg13
(lp681
g102
(g664
tp682
Rp683
(dp684
bag27
(g392
g128
(g664
tp685
Rp686
(dp687
btp688
Rp689
(dp690
bag16
ag650
ag27
(g102
(g643
tp691
Rp692
(dp693
bg686
tp694
Rp695
(dp696
bag27
(g692
g683
tp697
Rp698
(dp699
bag27
(g392
g128
(g643
tp700
Rp701
(dp702
btp703
Rp704
(dp705
bag27
(g392
g657
g701
tp706
Rp707
(dp708
bag27
(g701
g686
tp709
Rp710
(dp711
bag27
(g683
g701
tp712
Rp713
(dp714
bag692
ag27
(g657
g692
tp715
Rp716
(dp717
bag16
ag16
ag16
ag176
asg18
I4
sbsS'm'
p718
(lp719
g271
asS'l'
p720
(lp721
g0
(g8
g2
Ntp722
Rp723
(dp724
g12
I3
sg13
(lp725
g97
ag123
ag264
asg18
I1
sbasS'q'
p726
g0
(g8
g2
Ntp727
Rp728
(dp729
g12
I1
sg13
(lp730
g105
asg18
I1
sbsS'r'
p731
(lp732
g0
(g8
g2
Ntp733
Rp734
(dp735
g12
I3
sg13
(lp736
g402
ag412
ag385
asg18
I1
sbasS'Ia'
p737
(lp738
g191
asS'Ie'
p739
(lp740
(lp741
g473
ag492
ag502
ag524
ag534
ag553
aasS'I_funcof_L'
p742
(lp743
g0
(g8
g2
Ntp744
Rp745
(dp746
g12
I3
sg13
(lp747
g638
ag623
ag629
ag623
ag608
ag599
ag629
ag599
ag617
asg18
I3
sbasbsS'geom'
p748
g0
(csympybotics.geometry
Geometry
p749
g2
Ntp750
Rp751
(dp752
S'Tdh'
p753
(lp754
g0
(g8
g2
Ntp755
Rp756
(dp757
g12
I4
sg13
(lp758
g111
ag27
(g392
g130
tp759
Rp760
(dp761
bag16
ag16
ag130
ag111
ag16
ag16
ag16
ag16
ag176
ag16
ag16
ag16
ag16
ag176
asg18
I4
sbasS'Tdh_inv'
p762
(lp763
g0
(g8
g2
Ntp764
Rp765
(dp766
g12
I4
sg13
(lp767
g111
ag130
ag16
ag16
ag760
ag111
ag16
ag16
ag16
ag16
ag176
ag16
ag16
ag16
ag16
ag176
asg18
I4
sbasg179
I1
sS'p'
p768
(lp769
g0
(g8
g2
Ntp770
Rp771
(dp772
g12
I3
sg13
(lp773
g16
ag16
ag16
asg18
I1
sbasg370
g373
sS'T'
p774
(lp775
g0
(g8
g2
Ntp776
Rp777
(dp778
g12
I4
sg13
(lp779
g111
ag760
ag16
ag16
ag130
ag111
ag16
ag16
ag16
ag16
ag176
ag16
ag16
ag16
ag16
ag176
asg18
I4
sbasS'pdh'
p780
(lp781
g0
(g8
g2
Ntp782
Rp783
(dp784
g12
I3
sg13
(lp785
g16
ag16
ag16
asg18
I1
sbasS'R'
p786
(lp787
g0
(g8
g2
Ntp788
Rp789
(dp790
g12
I3
sg13
(lp791
g111
ag760
ag16
ag130
ag111
ag16
ag16
ag16
ag176
asg18
I3
sbasS'z'
p792
(lp793
g0
(g8
g2
Ntp794
Rp795
(dp796
g12
I3
sg13
(lp797
g16
ag16
ag176
asg18
I1
sbasS'Rdh'
p798
(lp799
g0
(g8
g2
Ntp800
Rp801
(dp802
g12
I3
sg13
(lp803
g111
ag760
ag16
ag130
ag111
ag16
ag16
ag16
ag176
asg18
I3
sbasbsS'Pd'
p804
g0
(g8
g2
Ntp805
Rp806
(dp807
g12
I14
sg13
(lp808
g176
ag16
ag16
ag16
ag16
ag16
ag16
ag16
ag16
ag176
ag16
ag16
ag16
ag16
ag16
ag16
ag16
ag16
ag176
ag16
ag16
ag16
ag16
ag16
ag16
ag16
ag16
ag176
ag16
ag16
ag16
ag16
ag16
ag16
ag16
ag16
ag176
ag16
ag16
ag16
ag16
ag16
ag16
ag16
ag16
ag16
ag16
ag16
ag16
ag16
ag16
ag16
ag16
ag16
ag16
ag16
ag16
ag16
ag16
ag16
ag16
ag16
ag16
ag16
ag16
ag16
ag16
ag16
ag16
ag176
ag16
ag16
ag16
ag16
ag16
ag16
ag16
ag16
ag176
ag16
ag16
ag16
ag16
ag16
ag16
ag16
ag16
ag176
ag16
ag16
ag16
ag16
ag16
ag16
ag16
ag16
ag16
ag16
ag16
ag16
ag16
ag16
ag16
ag16
ag16
ag16
ag16
ag16
ag16
ag16
ag16
ag16
asg18
I8
sbsS'H'
p809
g0
(g8
g2
Ntp810
Rp811
(dp812
g12
I1
sg13
(lp813
g16
ag16
ag16
ag16
ag16
ag154
ag333
ag28
(S'tmp7'
p814
tp815
Rp816
(dp817
g33
g0
(g34
g35
(dp818
g37
I01
sg38
I00
sg39
I01
sg40
I01
sg41
I01
stp819
Rp820
sbag16
ag16
ag154
ag47
ag28
(S'tmp9'
p821
tp822
Rp823
(dp824
g33
g0
(g34
g35
(dp825
g37
I01
sg38
I00
sg39
I01
sg40
I01
sg41
I01
stp826
Rp827
sbag176
asg18
I14
sbsS'n_base'
p828
I6
sS'base_idxs'
p829
(lp830
I5
aI6
aI7
aI11
aI12
aI13
asbsg370
g373
sS'kin'
p831
g0
(csympybotics.kinematics
Kinematics
p832
g2
Ntp833
Rp834
(dp835
S'Jcp'
p836
(lp837
g0
(g8
g2
Ntp838
Rp839
(dp840
g12
I3
sg13
(lp841
g26
(g27
(g392
g97
g130
tp842
Rp843
(dp844
bg27
(g392
g123
g111
tp845
Rp846
(dp847
btp848
Rp849
(dp850
bag26
(g27
(g97
g111
tp851
Rp852
(dp853
bg27
(g392
g123
g130
tp854
Rp855
(dp856
btp857
Rp858
(dp859
bag16
asg18
I1
sbasS'Jp'
p860
(lp861
g0
(g8
g2
Ntp862
Rp863
(dp864
g12
I3
sg13
(lp865
g16
ag16
ag16
asg18
I1
sbasS'J'
p866
(lp867
g0
(g8
g2
Ntp868
Rp869
(dp870
g12
I6
sg13
(lp871
g16
ag16
ag16
ag16
ag16
ag176
asg18
I1
sbasg179
I1
sg370
g373
sS'Jo'
p872
(lp873
g0
(g8
g2
Ntp874
Rp875
(dp876
g12
I3
sg13
(lp877
g16
ag16
ag176
asg18
I1
sbasg748
g751
sS'Jco'
p878
g873
sS'Jc'
p879
(lp880
g0
(g8
g2
Ntp881
Rp882
(dp883
g12
I6
sg13
(lp884
g849
ag858
ag16
ag16
ag16
ag176
asg18
I1
sbasbsS'M_code'
p885
((lp886
g0
(g8
g2
Ntp887
Rp888
(dp889
g12
I1
sg13
(lp890
g26
(g294
g300
tp891
Rp892
(dp893
basg18
I1
sbtp894
sS'_codes'
p895
(lp896
g180
ag82
ag6
ag139
ag885
ag146
ag20
aS'Hb_code'
p897
asS'_H_se'
p898
(dp899
g390
(g47
g463
tp900
Rp901
(dp902
bg28
(S'tmp4'
p903
tp904
Rp905
(dp906
g33
g0
(g34
g35
(dp907
g37
I01
sg38
I00
sg39
I01
sg40
I01
sg41
I01
stp908
Rp909
sbsg130
g28
(S'tmp0'
p910
tp911
Rp912
(dp913
g33
g0
(g34
g35
(dp914
g37
I01
sg38
I00
sg39
I01
sg40
I01
sg41
I01
stp915
Rp916
sbsg111
g28
(S'tmp2'
p917
tp918
Rp919
(dp920
g33
g0
(g34
g35
(dp921
g37
I01
sg38
I00
sg39
I01
sg40
I01
sg41
I01
stp922
Rp923
sbsg27
(g392
g350
tp924
Rp925
(dp926
bg816
sg27
(g392
g154
tp927
Rp928
(dp929
bg28
(S'tmp6'
p930
tp931
Rp932
(dp933
g33
g0
(g34
g35
(dp934
g37
I01
sg38
I00
sg39
I01
sg40
I01
sg41
I01
stp935
Rp936
sbsg27
(g88
((I1
S'139eb851eb851fL'
p937
I-49
I53
tp938
tp939
Rp940
(dp941
g94
I53
sbg912
tp942
Rp943
(dp944
bg350
sg27
(g392
g333
tp945
Rp946
(dp947
bg28
(S'tmp8'
p948
tp949
Rp950
(dp951
g33
g0
(g34
g35
(dp952
g37
I01
sg38
I00
sg39
I01
sg40
I01
sg41
I01
stp953
Rp954
sbsg27
(g88
((I1
S'139eb851eb851fL'
p955
I-49
I53
tp956
tp957
Rp958
(dp959
g94
I53
sbg919
tp960
Rp961
(dp962
bg333
sg27
(g392
g905
tp963
Rp964
(dp965
bg28
(S'tmp5'
p966
tp967
Rp968
(dp969
g33
g0
(g34
g35
(dp970
g37
I01
sg38
I00
sg39
I01
sg40
I01
sg41
I01
stp971
Rp972
sbsg56
g823
ssg897
((lp973
g0
(g8
g2
Ntp974
Rp975
(dp976
g12
I1
sg13
(lp977
g154
ag165
ag173
ag47
ag56
ag176
asg18
I6
sbtp978
sS'geo'
p979
g751
sb.